target datalayout = "e-m:e-p270:32:32-p271:32:32-p272:64:64-i64:64-i128:128-f80:128-n8:16:32:64-S128"
target triple = "x86_64-unknown-linux-gnu"

%struct.BlockLimits = type { i32, i64, i32, i64, i32, i32, i32, i64, i32, i64, i64, i32, i8, i32, i32, i32, i32, i32, i32, i32 }
%struct.BlockDriverState = type { i32, i8, i8, i8, i8, i8, ptr, ptr, ptr, %struct.anon.1, i8, [4096 x i8], [4096 x i8], [4096 x i8], [16 x i8], ptr, [4096 x i8], %struct.BlockLimits, i32, i32, i32, i32, [32 x i8], %union.anon, %union.anon.2, %union.anon.3, i32, [16 x %struct.anon.4], ptr, %struct.anon.5, ptr, ptr, %struct.anon.6, ptr, ptr, i32, ptr, i64, i64, %struct.QemuMutex, %struct.anon.7, %struct.Stat64, i32, i32, i32, i32, i32, i32, %struct.QemuMutex, %struct.anon.8, %struct.CoQueue, i8, i32, i8, %struct.CoMutex, ptr, ptr }
%struct.anon.1 = type { ptr }
%union.anon = type { %struct.QTailQLink }
%struct.QTailQLink = type { ptr, ptr }
%union.anon.2 = type { %struct.QTailQLink }
%union.anon.3 = type { %struct.QTailQLink }
%struct.anon.4 = type { ptr }
%struct.anon.5 = type { ptr }
%struct.anon.6 = type { ptr }
%struct.anon.7 = type { ptr }
%struct.Stat64 = type { i64 }
%struct.QemuMutex = type { %union.pthread_mutex_t, i8 }
%union.pthread_mutex_t = type { %struct.__pthread_mutex_s }
%struct.__pthread_mutex_s = type { i32, i32, i32, i32, i32, i16, i16, %struct.__pthread_internal_list }
%struct.__pthread_internal_list = type { ptr, ptr }
%struct.anon.8 = type { ptr }
%struct.CoQueue = type { %struct.anon.9 }
%struct.anon.9 = type { ptr, ptr }
%struct.CoMutex = type { i32, ptr, %struct.anon.10, %struct.anon.10, i32, i32, ptr }
%struct.anon.10 = type { ptr }
%struct.BdrvTrackedRequest = type { ptr, i64, i64, i32, i8, i64, i64, %struct.anon.12, ptr, %struct.CoQueue, ptr }
%struct.anon.12 = type { ptr, ptr }

@.str.1 = private unnamed_addr constant [19 x i8] c"../qemu/block/io.c\00", align 1
@qemu_mutex_lock_func = external global ptr, align 8
@error_abort = external global ptr, align 8
@__func__.tracked_request_begin = private unnamed_addr constant [22 x i8] c"tracked_request_begin\00", align 1

; Function Attrs: nounwind sspstrong uwtable
define dso_local i32 @bdrv_check_request(i64 noundef %offset, i64 noundef %bytes, ptr noundef %errp) #0 {
entry:
  %offset.addr = alloca i64, align 8
  %bytes.addr = alloca i64, align 8
  %errp.addr = alloca ptr, align 8
  store i64 %offset, ptr %offset.addr, align 8
  store i64 %bytes, ptr %bytes.addr, align 8
  store ptr %errp, ptr %errp.addr, align 8
  %0 = load i64, ptr %offset.addr, align 8
  %1 = load i64, ptr %bytes.addr, align 8
  %2 = load ptr, ptr %errp.addr, align 8
  %call = call i32 @bdrv_check_qiov_request(i64 noundef %0, i64 noundef %1, ptr noundef null, i64 noundef 0, ptr noundef %2)
  ret i32 %call
}

; Function Attrs: nounwind sspstrong uwtable
define internal void @tracked_request_begin(ptr noundef %req, ptr noundef %bs, i64 noundef %offset, i64 noundef %bytes, i32 noundef %type) #0 {
entry:
  %req.addr = alloca ptr, align 8
  %bs.addr = alloca ptr, align 8
  %offset.addr = alloca i64, align 8
  %bytes.addr = alloca i64, align 8
  %type.addr = alloca i32, align 4
  %.compoundliteral = alloca %struct.BdrvTrackedRequest, align 8
  %_f = alloca ptr, align 8
  %tmp = alloca ptr, align 8
  %atomic-temp = alloca ptr, align 8
  store ptr %req, ptr %req.addr, align 8
  store ptr %bs, ptr %bs.addr, align 8
  store i64 %offset, ptr %offset.addr, align 8
  store i64 %bytes, ptr %bytes.addr, align 8
  store i32 %type, ptr %type.addr, align 4
  %0 = load i64, ptr %offset.addr, align 8
  %1 = load i64, ptr %bytes.addr, align 8
  %call = call i32 @bdrv_check_request(i64 noundef %0, i64 noundef %1, ptr noundef @error_abort)
  %2 = load ptr, ptr %req.addr, align 8
  %bs1 = getelementptr inbounds %struct.BdrvTrackedRequest, ptr %.compoundliteral, i32 0, i32 0
  %3 = load ptr, ptr %bs.addr, align 8
  store ptr %3, ptr %bs1, align 8
  %offset2 = getelementptr inbounds %struct.BdrvTrackedRequest, ptr %.compoundliteral, i32 0, i32 1
  %4 = load i64, ptr %offset.addr, align 8
  store i64 %4, ptr %offset2, align 8
  %bytes3 = getelementptr inbounds %struct.BdrvTrackedRequest, ptr %.compoundliteral, i32 0, i32 2
  %5 = load i64, ptr %bytes.addr, align 8
  store i64 %5, ptr %bytes3, align 8
  %type4 = getelementptr inbounds %struct.BdrvTrackedRequest, ptr %.compoundliteral, i32 0, i32 3
  %6 = load i32, ptr %type.addr, align 4
  store i32 %6, ptr %type4, align 8
  %serialising = getelementptr inbounds %struct.BdrvTrackedRequest, ptr %.compoundliteral, i32 0, i32 4
  store i8 0, ptr %serialising, align 4
  %overlap_offset = getelementptr inbounds %struct.BdrvTrackedRequest, ptr %.compoundliteral, i32 0, i32 5
  %7 = load i64, ptr %offset.addr, align 8
  store i64 %7, ptr %overlap_offset, align 8
  %overlap_bytes = getelementptr inbounds %struct.BdrvTrackedRequest, ptr %.compoundliteral, i32 0, i32 6
  %8 = load i64, ptr %bytes.addr, align 8
  store i64 %8, ptr %overlap_bytes, align 8
  %list = getelementptr inbounds %struct.BdrvTrackedRequest, ptr %.compoundliteral, i32 0, i32 7
  call void @llvm.memset.p0.i64(ptr align 8 %list, i8 0, i64 16, i1 false)
  %co = getelementptr inbounds %struct.BdrvTrackedRequest, ptr %.compoundliteral, i32 0, i32 8
  %call5 = call ptr @qemu_coroutine_self()
  store ptr %call5, ptr %co, align 8
  %wait_queue = getelementptr inbounds %struct.BdrvTrackedRequest, ptr %.compoundliteral, i32 0, i32 9
  call void @llvm.memset.p0.i64(ptr align 8 %wait_queue, i8 0, i64 16, i1 false)
  %waiting_for = getelementptr inbounds %struct.BdrvTrackedRequest, ptr %.compoundliteral, i32 0, i32 10
  store ptr null, ptr %waiting_for, align 8
  call void @llvm.memcpy.p0.p0.i64(ptr align 8 %2, ptr align 8 %.compoundliteral, i64 96, i1 false)
  %9 = load ptr, ptr %req.addr, align 8
  %wait_queue6 = getelementptr inbounds %struct.BdrvTrackedRequest, ptr %9, i32 0, i32 9
  call void @qemu_co_queue_init(ptr noundef %wait_queue6)
  br label %while.cond

while.cond:                                       ; preds = %do.end, %entry
  br i1 false, label %while.body, label %while.end

while.body:                                       ; preds = %while.cond
  br label %do.body

do.body:                                          ; preds = %while.body
  call void @g_assertion_message_expr(ptr noundef null, ptr noundef @.str.1, i32 noundef 657, ptr noundef @__func__.tracked_request_begin, ptr noundef null) #13
  unreachable

do.end:                                           ; No predecessors!
  br label %while.cond

while.end:                                        ; preds = %while.cond
  %10 = load atomic i64, ptr @qemu_mutex_lock_func monotonic, align 8
  store i64 %10, ptr %atomic-temp, align 8
  %11 = load ptr, ptr %atomic-temp, align 8
  store ptr %11, ptr %tmp, align 8
  %12 = load ptr, ptr %tmp, align 8
  store ptr %12, ptr %_f, align 8
  %13 = load ptr, ptr %_f, align 8
  %14 = load ptr, ptr %bs.addr, align 8
  %reqs_lock = getelementptr inbounds %struct.BlockDriverState, ptr %14, i32 0, i32 48
  call void %13(ptr noundef %reqs_lock, ptr noundef @.str.1, i32 noundef 657)
  br label %do.body7

do.body7:                                         ; preds = %while.end
  %15 = load ptr, ptr %bs.addr, align 8
  %tracked_requests = getelementptr inbounds %struct.BlockDriverState, ptr %15, i32 0, i32 49
  %lh_first = getelementptr inbounds %struct.anon.8, ptr %tracked_requests, i32 0, i32 0
  %16 = load ptr, ptr %lh_first, align 8
  %17 = load ptr, ptr %req.addr, align 8
  %list8 = getelementptr inbounds %struct.BdrvTrackedRequest, ptr %17, i32 0, i32 7
  %le_next = getelementptr inbounds %struct.anon.12, ptr %list8, i32 0, i32 0
  store ptr %16, ptr %le_next, align 8
  %cmp = icmp ne ptr %16, null
  br i1 %cmp, label %if.then, label %if.end

if.then:                                          ; preds = %do.body7
  %18 = load ptr, ptr %req.addr, align 8
  %list9 = getelementptr inbounds %struct.BdrvTrackedRequest, ptr %18, i32 0, i32 7
  %le_next10 = getelementptr inbounds %struct.anon.12, ptr %list9, i32 0, i32 0
  %19 = load ptr, ptr %bs.addr, align 8
  %tracked_requests11 = getelementptr inbounds %struct.BlockDriverState, ptr %19, i32 0, i32 49
  %lh_first12 = getelementptr inbounds %struct.anon.8, ptr %tracked_requests11, i32 0, i32 0
  %20 = load ptr, ptr %lh_first12, align 8
  %list13 = getelementptr inbounds %struct.BdrvTrackedRequest, ptr %20, i32 0, i32 7
  %le_prev = getelementptr inbounds %struct.anon.12, ptr %list13, i32 0, i32 1
  store ptr %le_next10, ptr %le_prev, align 8
  br label %if.end

if.end:                                           ; preds = %if.then, %do.body7
  %21 = load ptr, ptr %req.addr, align 8
  %22 = load ptr, ptr %bs.addr, align 8
  %tracked_requests14 = getelementptr inbounds %struct.BlockDriverState, ptr %22, i32 0, i32 49
  %lh_first15 = getelementptr inbounds %struct.anon.8, ptr %tracked_requests14, i32 0, i32 0
  store ptr %21, ptr %lh_first15, align 8
  %23 = load ptr, ptr %bs.addr, align 8
  %tracked_requests16 = getelementptr inbounds %struct.BlockDriverState, ptr %23, i32 0, i32 49
  %lh_first17 = getelementptr inbounds %struct.anon.8, ptr %tracked_requests16, i32 0, i32 0
  %24 = load ptr, ptr %req.addr, align 8
  %list18 = getelementptr inbounds %struct.BdrvTrackedRequest, ptr %24, i32 0, i32 7
  %le_prev19 = getelementptr inbounds %struct.anon.12, ptr %list18, i32 0, i32 1
  store ptr %lh_first17, ptr %le_prev19, align 8
  br label %do.end20

do.end20:                                         ; preds = %if.end
  %25 = load ptr, ptr %bs.addr, align 8
  %reqs_lock21 = getelementptr inbounds %struct.BlockDriverState, ptr %25, i32 0, i32 48
  call void @qemu_mutex_unlock_impl(ptr noundef %reqs_lock21, ptr noundef @.str.1, i32 noundef 659)
  ret void
}