; Function Attrs: nounwind sspstrong uwtable
define internal void @tracked_request_begin(ptr noundef initializes((0, 29), (32, 96)) %req, ptr noundef %bs, i64 noundef %offset, i64 noundef %bytes, i32 noundef %type) #0 {
entry:
  %call.i = tail call range(i32 -5, 1) i32 @bdrv_check_qiov_request(i64 noundef %offset, i64 noundef %bytes, ptr noundef null, i64 noundef 0, ptr noundef nonnull @error_abort)
  %call5 = tail call ptr @qemu_coroutine_self() #15
  store ptr %bs, ptr %req, align 8
  %.compoundliteral.sroa.2.0..sroa_idx = getelementptr inbounds nuw i8, ptr %req, i64 8
  store i64 %offset, ptr %.compoundliteral.sroa.2.0..sroa_idx, align 8
  %.compoundliteral.sroa.3.0..sroa_idx = getelementptr inbounds nuw i8, ptr %req, i64 16
  store i64 %bytes, ptr %.compoundliteral.sroa.3.0..sroa_idx, align 8
  %.compoundliteral.sroa.4.0..sroa_idx = getelementptr inbounds nuw i8, ptr %req, i64 24
  store i32 %type, ptr %.compoundliteral.sroa.4.0..sroa_idx, align 8
  %.compoundliteral.sroa.5.0..sroa_idx = getelementptr inbounds nuw i8, ptr %req, i64 28
  store i8 0, ptr %.compoundliteral.sroa.5.0..sroa_idx, align 4
  %.compoundliteral.sroa.61.0..sroa_idx = getelementptr inbounds nuw i8, ptr %req, i64 32
  store i64 %offset, ptr %.compoundliteral.sroa.61.0..sroa_idx, align 8
  %.compoundliteral.sroa.7.0..sroa_idx = getelementptr inbounds nuw i8, ptr %req, i64 40
  store i64 %bytes, ptr %.compoundliteral.sroa.7.0..sroa_idx, align 8
  %.compoundliteral.sroa.8.0..sroa_idx = getelementptr inbounds nuw i8, ptr %req, i64 48
  tail call void @llvm.memset.p0.i64(ptr noundef nonnull align 8 dereferenceable(16) %.compoundliteral.sroa.8.0..sroa_idx, i8 0, i64 16, i1 false)
  %.compoundliteral.sroa.9.0..sroa_idx = getelementptr inbounds nuw i8, ptr %req, i64 64
  store ptr %call5, ptr %.compoundliteral.sroa.9.0..sroa_idx, align 8
  %.compoundliteral.sroa.10.0..sroa_idx = getelementptr inbounds nuw i8, ptr %req, i64 72
  tail call void @llvm.memset.p0.i64(ptr noundef nonnull align 8 dereferenceable(24) %.compoundliteral.sroa.10.0..sroa_idx, i8 0, i64 24, i1 false)
  tail call void @qemu_co_queue_init(ptr noundef nonnull %.compoundliteral.sroa.10.0..sroa_idx) #15
  %0 = load atomic i64, ptr @qemu_mutex_lock_func monotonic, align 8
  %1 = inttoptr i64 %0 to ptr
  %reqs_lock = getelementptr inbounds nuw i8, ptr %bs, i64 16992
  tail call void %1(ptr noundef nonnull %reqs_lock, ptr noundef nonnull @.str.1, i32 noundef 657) #15
  %tracked_requests = getelementptr inbounds nuw i8, ptr %bs, i64 17040
  %2 = load ptr, ptr %tracked_requests, align 8
  store ptr %2, ptr %.compoundliteral.sroa.8.0..sroa_idx, align 8
  %cmp.not = icmp eq ptr %2, null
  br i1 %cmp.not, label %if.end, label %if.then

if.then:                                          ; preds = %entry
  %le_prev = getelementptr inbounds nuw i8, ptr %2, i64 56
  store ptr %.compoundliteral.sroa.8.0..sroa_idx, ptr %le_prev, align 8
  br label %if.end

if.end:                                           ; preds = %if.then, %entry
  store ptr %req, ptr %tracked_requests, align 8
  %le_prev19 = getelementptr inbounds nuw i8, ptr %req, i64 56
  store ptr %tracked_requests, ptr %le_prev19, align 8
  tail call void @qemu_mutex_unlock_impl(ptr noundef nonnull %reqs_lock, ptr noundef nonnull @.str.1, i32 noundef 659) #15
  ret void
}